target datalayout = "e-m:e-p270:32:32-p271:32:32-p272:64:64-i64:64-i128:128-f80:128-n8:16:32:64-S128"
target triple = "x86_64-pc-linux-gnu"

; Function Attrs: nounwind uwtable
define internal float @_curve_log10(float noundef %0, i32 noundef %1) #0 {
  %3 = alloca float, align 4
  %4 = alloca float, align 4
  %5 = alloca i32, align 4
  store float %0, ptr %4, align 4, !tbaa !130
  store i32 %1, ptr %5, align 4, !tbaa !13
  %6 = load i32, ptr %5, align 4, !tbaa !13
  %7 = icmp eq i32 %6, 1
  br i1 %7, label %8, label %14

8:                                                ; preds = %2
  %9 = load float, ptr %4, align 4, !tbaa !130
  %10 = fmul reassoc nsz arcp contract afn float %9, 9.990000e+02
  %11 = fadd reassoc nsz arcp contract afn float %10, 1.000000e+00
  %12 = call reassoc nsz arcp contract afn float @llvm.log10.f32(float %11)
  %13 = fdiv reassoc nsz arcp contract afn float %12, 3.000000e+00
  store float %13, ptr %3, align 4
  br label %23

14:                                               ; preds = %2
  %15 = load float, ptr %4, align 4, !tbaa !130
  %16 = fpext reassoc nsz arcp contract afn float %15 to double
  %17 = fmul reassoc nsz arcp contract afn double 0x40026BB1BBB55516, %16
  %18 = fmul reassoc nsz arcp contract afn double %17, 3.000000e+00
  %19 = fptrunc reassoc nsz arcp contract afn double %18 to float
  %20 = call reassoc nsz arcp contract afn float @llvm.exp.f32(float %19)
  %21 = fsub reassoc nsz arcp contract afn float %20, 1.000000e+00
  %22 = fdiv reassoc nsz arcp contract afn float %21, 9.990000e+02
  store float %22, ptr %3, align 4
  br label %23

23:                                               ; preds = %14, %8
  %24 = load float, ptr %3, align 4
  ret float %24
}