; Function Attrs: mustprogress nofree norecurse nosync nounwind willreturn memory(none) uwtable
define internal float @_curve_log10(float noundef %0, i32 noundef %1) #7 {
  %3 = icmp eq i32 %1, 1
  br i1 %3, label %4, label %9

4:                                                ; preds = %2
  %5 = fmul reassoc nsz arcp contract afn float %0, 9.990000e+02
  %6 = fadd reassoc nsz arcp contract afn float %5, 1.000000e+00
  %7 = tail call reassoc nsz arcp contract afn float @llvm.log10.f32(float %6)
  %8 = fmul reassoc nsz arcp contract afn float %7, 0x3FD5555560000000
  br label %16

9:                                                ; preds = %2
  %10 = fpext reassoc nsz arcp contract afn float %0 to double
  %11 = fmul reassoc nsz arcp contract afn double %10, 0x401BA18A998FFFA1
  %12 = fptrunc reassoc nsz arcp contract afn double %11 to float
  %13 = tail call reassoc nsz arcp contract afn float @llvm.exp.f32(float %12)
  %14 = fmul reassoc nsz arcp contract afn float %13, 0x3F506680A0000000
  %15 = fadd reassoc nsz arcp contract afn float %14, 0xBF506680A0000000
  br label %16

16:                                               ; preds = %9, %4
  %.0 = phi nsz float [ %8, %4 ], [ %15, %9 ]
  ret float %.0
}